; Function Attrs: nounwind uwtable
define hidden void @_ir_TAILCALL_5(ptr nocapture noundef %0, i32 noundef %1, i32 noundef %2, i32 noundef %3, i32 noundef %4, i32 noundef %5, i32 noundef %6, i32 noundef %7) local_unnamed_addr #0 {
  %9 = getelementptr inbounds i8, ptr %0, i64 32
  %10 = load i32, ptr %9, align 8
  %11 = icmp eq i32 %10, -1
  br i1 %11, label %12, label %13

12:                                               ; preds = %8
  store i32 %1, ptr %9, align 8
  br label %13

13:                                               ; preds = %12, %8
  %14 = shl i32 %1, 8
  %15 = and i32 %14, 16318208
  %16 = getelementptr inbounds i8, ptr %0, i64 8
  %17 = load i32, ptr %16, align 8
  %18 = add nsw i32 %17, 1
  %19 = getelementptr inbounds i8, ptr %0, i64 12
  %20 = load i32, ptr %19, align 4
  %.not22.i = icmp slt i32 %18, %20
  %.pre30.i = load ptr, ptr %0, align 8
  br i1 %.not22.i, label %ir_emit_N.exit, label %.lr.ph.i

.lr.ph.i:                                         ; preds = %13
  %21 = getelementptr inbounds i8, ptr %0, i64 20
  %.pre29.i = load i32, ptr %21, align 4
  br label %22

22:                                               ; preds = %22, %.lr.ph.i
  %23 = phi i32 [ %.pre29.i, %.lr.ph.i ], [ %37, %22 ]
  %24 = phi ptr [ %.pre30.i, %.lr.ph.i ], [ %39, %22 ]
  %25 = phi i32 [ %20, %.lr.ph.i ], [ %40, %22 ]
  %26 = icmp slt i32 %25, 4096
  %27 = shl nsw i32 %25, 1
  %28 = icmp ult i32 %25, 8192
  %29 = add nuw nsw i32 %25, 4096
  %spec.select.i.i = select i1 %28, i32 8192, i32 %29
  %.sink.i.i = select i1 %26, i32 %27, i32 %spec.select.i.i
  store i32 %.sink.i.i, ptr %19, align 4
  %30 = sext i32 %23 to i64
  %31 = sub nsw i64 0, %30
  %32 = getelementptr inbounds %struct._ir_insn, ptr %24, i64 %31
  %33 = add nsw i32 %.sink.i.i, %23
  %34 = sext i32 %33 to i64
  %35 = shl nsw i64 %34, 4
  %36 = tail call ptr @_erealloc(ptr noundef %32, i64 noundef %35) #24
  %37 = load i32, ptr %21, align 4
  %38 = sext i32 %37 to i64
  %39 = getelementptr inbounds %struct._ir_insn, ptr %36, i64 %38
  store ptr %39, ptr %0, align 8
  %40 = load i32, ptr %19, align 4
  %.not.i = icmp slt i32 %18, %40
  br i1 %.not.i, label %ir_emit_N.exit, label %22

ir_emit_N.exit:                                   ; preds = %22, %13
  %41 = phi ptr [ %.pre30.i, %13 ], [ %39, %22 ]
  %42 = add i32 %17, 2
  store i32 %42, ptr %16, align 8
  %43 = sext i32 %17 to i64
  %44 = getelementptr inbounds %struct._ir_insn, ptr %41, i64 %43
  %45 = or disjoint i32 %15, 458822
  store i32 %45, ptr %44, align 8
  %46 = shl nsw i64 %43, 4
  %47 = or disjoint i64 %46, 4
  %scevgep.i = getelementptr i8, ptr %41, i64 %47
  tail call void @llvm.memset.p0.i64(ptr noundef nonnull align 4 dereferenceable(28) %scevgep.i, i8 0, i64 28, i1 false)
  %48 = getelementptr inbounds i8, ptr %0, i64 248
  %49 = load i32, ptr %48, align 8
  %50 = load ptr, ptr %0, align 8
  %51 = getelementptr inbounds %struct._ir_insn, ptr %50, i64 %43, i32 0, i32 1
  store i32 %49, ptr %51, align 4
  %52 = load ptr, ptr %0, align 8
  %53 = getelementptr inbounds %struct._ir_insn, ptr %52, i64 %43, i32 1
  store i32 %2, ptr %53, align 4
  %54 = load ptr, ptr %0, align 8
  %55 = getelementptr inbounds %struct._ir_insn, ptr %54, i64 %43
  %56 = getelementptr inbounds i8, ptr %55, i64 12
  store i32 %3, ptr %56, align 4
  %57 = load ptr, ptr %0, align 8
  %58 = getelementptr inbounds %struct._ir_insn, ptr %57, i64 %43
  %59 = getelementptr inbounds i8, ptr %58, i64 16
  store i32 %4, ptr %59, align 4
  %60 = load ptr, ptr %0, align 8
  %61 = getelementptr inbounds %struct._ir_insn, ptr %60, i64 %43
  %62 = getelementptr inbounds i8, ptr %61, i64 20
  store i32 %5, ptr %62, align 4
  %63 = load ptr, ptr %0, align 8
  %64 = getelementptr inbounds %struct._ir_insn, ptr %63, i64 %43
  %65 = getelementptr inbounds i8, ptr %64, i64 24
  store i32 %6, ptr %65, align 4
  %66 = load ptr, ptr %0, align 8
  %67 = getelementptr inbounds %struct._ir_insn, ptr %66, i64 %43
  %68 = getelementptr inbounds i8, ptr %67, i64 28
  store i32 %7, ptr %68, align 4
  store i32 %17, ptr %48, align 8
  %69 = load ptr, ptr %0, align 8
  %70 = getelementptr inbounds i8, ptr %69, i64 20
  %71 = load i32, ptr %70, align 4
  %72 = load i32, ptr %16, align 8
  %73 = load i32, ptr %19, align 4
  %.not.i.i.i.i = icmp slt i32 %72, %73
  br i1 %.not.i.i.i.i, label %_ir_UNREACHABLE.exit, label %74

74:                                               ; preds = %ir_emit_N.exit
  %75 = getelementptr inbounds i8, ptr %0, i64 20
  %76 = load i32, ptr %75, align 4
  %77 = icmp slt i32 %73, 4096
  %78 = shl nsw i32 %73, 1
  %79 = icmp ult i32 %73, 8192
  %80 = add nuw nsw i32 %73, 4096
  %spec.select.i.i.i.i.i = select i1 %79, i32 8192, i32 %80
  %.sink.i.i.i.i.i = select i1 %77, i32 %78, i32 %spec.select.i.i.i.i.i
  store i32 %.sink.i.i.i.i.i, ptr %19, align 4
  %81 = sext i32 %76 to i64
  %82 = sub nsw i64 0, %81
  %83 = getelementptr inbounds %struct._ir_insn, ptr %69, i64 %82
  %84 = add nsw i32 %76, %.sink.i.i.i.i.i
  %85 = sext i32 %84 to i64
  %86 = shl nsw i64 %85, 4
  %87 = tail call ptr @_erealloc(ptr noundef %83, i64 noundef %86) #24
  %88 = load i32, ptr %75, align 4
  %89 = sext i32 %88 to i64
  %90 = getelementptr inbounds %struct._ir_insn, ptr %87, i64 %89
  store ptr %90, ptr %0, align 8
  br label %_ir_UNREACHABLE.exit

_ir_UNREACHABLE.exit:                             ; preds = %ir_emit_N.exit, %74
  %91 = phi ptr [ %69, %ir_emit_N.exit ], [ %90, %74 ]
  %92 = add nsw i32 %72, 1
  store i32 %92, ptr %16, align 8
  %93 = sext i32 %72 to i64
  %94 = getelementptr inbounds %struct._ir_insn, ptr %91, i64 %93
  store i32 104, ptr %94, align 8
  %95 = getelementptr inbounds i8, ptr %94, i64 4
  store i32 %17, ptr %95, align 4
  %96 = getelementptr inbounds i8, ptr %94, i64 8
  store i32 0, ptr %96, align 8
  %97 = getelementptr inbounds i8, ptr %94, i64 12
  store i32 %71, ptr %97, align 4
  %98 = load ptr, ptr %0, align 8
  %99 = getelementptr inbounds i8, ptr %98, i64 20
  store i32 %72, ptr %99, align 4
  store i32 0, ptr %48, align 8
  ret void
}